target datalayout = "e-m:e-p270:32:32-p271:32:32-p272:64:64-i64:64-i128:128-f80:128-n8:16:32:64-S128"
target triple = "x86_64-pc-linux-gnu"

%union.swapf32 = type { i32 }

@rb_eArgError = external global i64, align 8
@.str.138 = private unnamed_addr constant [59 x i8] c"Type extends beyond end of buffer! (offset=%zd > size=%zd)\00", align 1

; Function Attrs: alwaysinline nounwind
define internal ptr @memcpy.inline(ptr noalias nonnull %0, ptr noalias nonnull %1, i64 %2) #10 {
  %4 = alloca ptr, align 8
  %5 = alloca ptr, align 8
  %6 = alloca i64, align 8
  store ptr %0, ptr %4, align 8, !tbaa !7
  store ptr %1, ptr %5, align 8, !tbaa !7
  store i64 %2, ptr %6, align 8, !tbaa !20
  %7 = load ptr, ptr %4, align 8, !tbaa !7
  %8 = load ptr, ptr %5, align 8, !tbaa !7
  %9 = load i64, ptr %6, align 8, !tbaa !20
  %10 = load ptr, ptr %4, align 8, !tbaa !7
  %11 = call i64 @llvm.objectsize.i64.p0(ptr %10, i1 false, i1 true, i1 false)
  %12 = call ptr @__memcpy_chk(ptr noundef %7, ptr noundef %8, i64 noundef %9, i64 noundef %11) #22
  ret ptr %12
}

; Function Attrs: inlinehint nounwind sspstrong uwtable
define internal i32 @ruby_swap32(i32 noundef %0) #3 {
  %2 = alloca i32, align 4
  store i32 %0, ptr %2, align 4, !tbaa !32
  %3 = load i32, ptr %2, align 4, !tbaa !32
  %4 = call i32 @llvm.bswap.i32(i32 %3)
  ret i32 %4
}

; Function Attrs: inlinehint nounwind sspstrong memory(argmem: readwrite, inaccessiblemem: readwrite) uwtable
define internal nonnull ptr @ruby_nonempty_memcpy(ptr noundef nonnull %0, ptr noundef %1, i64 noundef %2) #20 {
  %4 = alloca ptr, align 8
  %5 = alloca ptr, align 8
  %6 = alloca ptr, align 8
  %7 = alloca i64, align 8
  store ptr %0, ptr %5, align 8, !tbaa !7
  store ptr %1, ptr %6, align 8, !tbaa !7
  store i64 %2, ptr %7, align 8, !tbaa !20
  %8 = load i64, ptr %7, align 8, !tbaa !20
  %9 = icmp ne i64 %8, 0
  br i1 %9, label %10, label %15

10:                                               ; preds = %3
  %11 = load ptr, ptr %5, align 8, !tbaa !7
  %12 = load ptr, ptr %6, align 8, !tbaa !7
  %13 = load i64, ptr %7, align 8, !tbaa !20
  %14 = call ptr @memcpy.inline(ptr noundef %11, ptr noundef %12, i64 noundef %13) #22
  store ptr %14, ptr %4, align 8
  br label %17

15:                                               ; preds = %3
  %16 = load ptr, ptr %5, align 8, !tbaa !7
  store ptr %16, ptr %4, align 8
  br label %17

17:                                               ; preds = %15, %10
  %18 = load ptr, ptr %4, align 8
  ret ptr %18
}

; Function Attrs: nounwind sspstrong uwtable
define internal float @ruby_swapf32(float noundef %0) #0 {
  %2 = alloca float, align 4
  %3 = alloca %union.swapf32, align 4
  store float %0, ptr %2, align 4, !tbaa !109
  call void @llvm.lifetime.start.p0(i64 4, ptr %3) #22
  %4 = load float, ptr %2, align 4, !tbaa !109
  store float %4, ptr %3, align 4, !tbaa !37
  %5 = load i32, ptr %3, align 4, !tbaa !37
  %6 = call i32 @ruby_swap32(i32 noundef %5)
  store i32 %6, ptr %3, align 4, !tbaa !37
  %7 = load float, ptr %3, align 4, !tbaa !37
  call void @llvm.lifetime.end.p0(i64 4, ptr %3) #22
  ret float %7
}

; Function Attrs: nounwind sspstrong uwtable
define internal void @io_buffer_validate_type(i64 noundef %0, i64 noundef %1) #0 {
  %3 = alloca i64, align 8
  %4 = alloca i64, align 8
  store i64 %0, ptr %3, align 8, !tbaa !20
  store i64 %1, ptr %4, align 8, !tbaa !20
  %5 = load i64, ptr %4, align 8, !tbaa !20
  %6 = load i64, ptr %3, align 8, !tbaa !20
  %7 = icmp ugt i64 %5, %6
  br i1 %7, label %8, label %12

8:                                                ; preds = %2
  %9 = load i64, ptr @rb_eArgError, align 8, !tbaa !20
  %10 = load i64, ptr %4, align 8, !tbaa !20
  %11 = load i64, ptr %3, align 8, !tbaa !20
  call void (i64, ptr, ...) @rb_raise(i64 noundef %9, ptr noundef @.str.138, i64 noundef %10, i64 noundef %11) #26
  unreachable

12:                                               ; preds = %2
  ret void
}

; Function Attrs: nounwind sspstrong uwtable
define internal void @io_buffer_write_F32(ptr noundef %0, i64 noundef %1, ptr noundef %2, i64 noundef %3) #0 {
  %5 = alloca ptr, align 8
  %6 = alloca i64, align 8
  %7 = alloca ptr, align 8
  %8 = alloca i64, align 8
  %9 = alloca float, align 4
  store ptr %0, ptr %5, align 8, !tbaa !7
  store i64 %1, ptr %6, align 8, !tbaa !20
  store ptr %2, ptr %7, align 8, !tbaa !33
  store i64 %3, ptr %8, align 8, !tbaa !20
  %10 = load i64, ptr %6, align 8, !tbaa !20
  %11 = load ptr, ptr %7, align 8, !tbaa !33
  %12 = load i64, ptr %11, align 8, !tbaa !20
  %13 = add i64 %12, 4
  call void @io_buffer_validate_type(i64 noundef %10, i64 noundef %13)
  call void @llvm.lifetime.start.p0(i64 4, ptr %9) #22
  %14 = load i64, ptr %8, align 8, !tbaa !20
  %15 = call double @rb_num2dbl(i64 noundef %14)
  %16 = fptrunc double %15 to float
  store float %16, ptr %9, align 4, !tbaa !109
  %17 = load float, ptr %9, align 4, !tbaa !109
  %18 = call float @ruby_swapf32(float noundef %17)
  store float %18, ptr %9, align 4, !tbaa !109
  %19 = load ptr, ptr %5, align 8, !tbaa !7
  %20 = load ptr, ptr %7, align 8, !tbaa !33
  %21 = load i64, ptr %20, align 8, !tbaa !20
  %22 = getelementptr i8, ptr %19, i64 %21
  %23 = call nonnull ptr @ruby_nonempty_memcpy(ptr noundef %22, ptr noundef %9, i64 noundef 4) #29
  %24 = load ptr, ptr %7, align 8, !tbaa !33
  %25 = load i64, ptr %24, align 8, !tbaa !20
  %26 = add i64 %25, 4
  store i64 %26, ptr %24, align 8, !tbaa !20
  call void @llvm.lifetime.end.p0(i64 4, ptr %9) #22
  ret void
}