; Function Attrs: nounwind sspstrong uwtable
define internal fastcc void @io_buffer_write_F32(ptr noundef %0, i64 noundef %1, ptr noundef nonnull captures(none) %2, i64 noundef %3) unnamed_addr #0 {
  %5 = load i64, ptr %2, align 8, !tbaa !22
  %6 = add i64 %5, 4
  %7 = icmp ugt i64 %6, %1
  br i1 %7, label %8, label %io_buffer_validate_type.exit

8:                                                ; preds = %4
  %9 = load i64, ptr @rb_eArgError, align 8, !tbaa !22
  tail call void (i64, ptr, ...) @rb_raise(i64 noundef %9, ptr noundef nonnull @.str.138, i64 noundef %6, i64 noundef %1) #26
  unreachable

io_buffer_validate_type.exit:                     ; preds = %4
  %10 = tail call double @rb_num2dbl(i64 noundef %3) #25
  %11 = fptrunc double %10 to float
  %12 = bitcast float %11 to i32
  %13 = tail call noundef i32 @llvm.bswap.i32(i32 %12)
  %14 = load i64, ptr %2, align 8, !tbaa !22
  %15 = getelementptr i8, ptr %0, i64 %14
  store i32 %13, ptr %15, align 1
  %16 = load i64, ptr %2, align 8, !tbaa !22
  %17 = add i64 %16, 4
  store i64 %17, ptr %2, align 8, !tbaa !22
  ret void
}